ccopy_reg
_reconstructor
p0
(cutil
Counter
p1
c__builtin__
dict
p2
(dp3
S'distance-between-teammates'
p4
F0.076058698309547659
sS'next-d-to-seen-invaders'
p5
F0.0
sS'distance-to-ghosts'
p6
F3.7034524774151224e-98
sS'next-offense-food'
p7
F0.04945301558823554
sS'farthest-food'
p8
F0.2130169804332861
sS'next-d-to-closest-sacred'
p9
F0.0
sS'distance-to-capsule'
p10
F0.0
sS'I-got-them'
p11
F-3.0804433211159387e-26
sS'distance-to-sacred-ghosts'
p12
F0.0
sS'bias'
p13
F0.0038040781221719651
sS'next-noisy-distance-to-enemy1'
p14
F0.045614528011134817
sS'next-noisy-distance-to-enemy2'
p15
F0.12938476193571899
sS'pre-num-of-food-to-defend'
p16
F0.0076081562443439301
sS'percentage-of-game-played'
p17
F0.0034110280309086749
sS'distance-to-invaders'
p18
F0.041833464935547654
sS'last-difference'
p19
F-0.041844859343891615
sS'next-d-to-seen-ghosts'
p20
F3.7034524774151224e-98
sS'minus-carry'
p21
F-4.0438788864457081e-304
sS'add-carry'
p22
F-8.9861632682353555e-82
sS'next-d-to-invaders'
p23
F0.041833464935547654
sS'num-of-capsule'
p24
F0.0
sS'noisy-distance-to-enemy1'
p25
F0.038018030622080319
sS'num-of-food-to-defend'
p26
F0.0076081562443439301
sS'last-score'
p27
F0.026628546855203755
sS'distance-to-seen-invaders'
p28
F0.0
sS'next-d-to-capsule'
p29
F0.0
sS'scaredTimer'
p30
F0.0
sS'they-got-me'
p31
F-1.797232653647071e-82
sS'next-score'
p32
F0.026628546855203755
sS'closest-food'
p33
F0.11791502737898694
sS'curr-score'
p34
F0.026628546855203755
sS'next-sacredTimer'
p35
F0.0
sS'next-distance-between-teammates'
p36
F0.07988564056561126
sS'num-of-food-attack'
p37
F0.04945301558823554
sS'next-defence-food'
p38
F0.0076081562443439301
sS'pre-num-of-food-attack'
p39
F0.04945301558823554
stp40
Rp41
.