ccopy_reg
_reconstructor
p0
(cutil
Counter
p1
c__builtin__
dict
p2
(dp3
S'distance-between-teammates'
p4
F0.055567487378865354
sS'num-of-food-to-defend'
p5
F0.10103180187790003
sS'pre-score'
p6
F-0.0
sS'distance-to-ghosts'
p7
F0.0706506965370377
sS'farthest-food'
p8
F0.13130530922117267
sS'distance-to-seen-invaders'
p9
F0.045393264088213606
sS'closest-food'
p10
F0.015119233301023672
sS'distance-to-capsule'
p11
F0.08584149461555371
sS'middle'
p12
F-3.578329696200786e-05
sS'bias'
p13
F0.005051590093895002
sS'noisy-cloest-Distance-to-enemy'
p14
F0.06065361292226961
sS'be-pacman'
p15
F0.005087373390857009
sS'scaredTimer'
p16
F1.2452792813289996e-268
sS'pre-num-of-food-attack'
p17
F0.10103180187790003
sS'hit'
p18
F-2.12266151739469e-197
sS'pre-num-of-food-to-defend'
p19
F0.10103180187790003
sS'percentage-of-game-played'
p20
F0.005051708550497206
sS'curr-score'
p21
F-0.0
sS'distance-to-invaders'
p22
F0.0453932368483736
sS'num-of-food-attack'
p23
F0.10103180187790003
sS'attack'
p24
F1.4277823755922466e-132
sS'num-of-capsule'
p25
F0.005051590093895002
sS'noisy-distance-to-enemy1'
p26
F0.06065460535285095
sS'defend'
p27
F0.005087373390857009
stp28
Rp29
.