ccopy_reg
_reconstructor
p0
(cutil
Counter
p1
c__builtin__
dict
p2
(dp3
S'distance-between-teammates'
p4
F0.08759086799807693
sS'num-of-food-to-defend'
p5
F0.09220091368218625
sS'pre-score'
p6
F0.06915068526163969
sS'distance-to-ghosts'
p7
F2.489607820727734e-47
sS'farthest-food'
p8
F0.18899296874532948
sS'distance-to-seen-invaders'
p9
F2.1170518762339173e-77
sS'closest-food'
p10
F0.16594274032478293
sS'distance-to-capsule'
p11
F2.37361325e-316
sS'middle'
p12
F1.2560894721789966e-47
sS'bias'
p13
F0.004610045684109312
sS'noisy-cloest-Distance-to-enemy'
p14
F0.08747693291217706
sS'be-pacman'
p15
F1.2561878204175395e-47
sS'scaredTimer'
p16
F0.0
sS'pre-num-of-food-attack'
p17
F0.023050228420546562
sS'hit'
p18
F2.0550102949533985e-77
sS'pre-num-of-food-to-defend'
p19
F0.09220091368218625
sS'percentage-of-game-played'
p20
F0.004610108698453153
sS'curr-score'
p21
F0.06915068526163969
sS'distance-to-invaders'
p22
F2.1170618093330423e-77
sS'num-of-food-attack'
p23
F0.023050228420546562
sS'attack'
p24
F0.004610045684109312
sS'num-of-capsule'
p25
F2.3923957e-316
sS'noisy-distance-to-enemy1'
p26
F0.08736263522421707
sS'defend'
p27
F-2.6407725401355883e-75
stp28
Rp29
.